target datalayout = "e-m:e-p270:32:32-p271:32:32-p272:64:64-i64:64-i128:128-f80:128-n8:16:32:64-S128"
target triple = "x86_64-pc-linux-gnu"

%"class.os::PageSizes" = type { i64 }

@_ZN2os11_page_sizesE = hidden global %"class.os::PageSizes" zeroinitializer, align 8
@UseLargePages = external global i8, align 1
@_ZN6OSInfo13_vm_page_sizeE = external global i64, align 8

; Function Attrs: mustprogress nounwind uwtable
define linkonce_odr hidden noundef i32 @_ZN21CountLeadingZerosImplImLm8EE4doitEm(i64 noundef %0) #1 comdat align 2 {
  %2 = alloca i64, align 8
  store i64 %0, ptr %2, align 8
  %3 = load i64, ptr %2, align 8
  %4 = call i64 @llvm.ctlz.i64(i64 %3, i1 true)
  %5 = trunc i64 %4 to i32
  ret i32 %5
}

; Function Attrs: mustprogress nounwind uwtable
define linkonce_odr hidden noundef i32 @_Z19count_leading_zerosImEjT_(i64 noundef %0) #1 comdat {
  %2 = alloca i64, align 8
  store i64 %0, ptr %2, align 8
  %3 = load i64, ptr %2, align 8
  %4 = call noundef i32 @_ZN21CountLeadingZerosImplImLm8EE4doitEm(i64 noundef %3)
  ret i32 %4
}

; Function Attrs: mustprogress nounwind uwtable
define linkonce_odr hidden noundef i32 @_Z5log2iImTnNSt9enable_ifIXcvbsr3std11is_integralIT_EE5valueEiE4typeELi0EEiS1_(i64 noundef %0) #1 comdat {
  %2 = alloca i64, align 8
  %3 = alloca i32, align 4
  store i64 %0, ptr %2, align 8
  store i32 64, ptr %3, align 4
  %4 = load i64, ptr %2, align 8
  %5 = call noundef i32 @_Z19count_leading_zerosImEjT_(i64 noundef %4)
  %6 = sub i32 64, %5
  %7 = sub i32 %6, 1
  ret i32 %7
}

; Function Attrs: mustprogress nounwind uwtable
define linkonce_odr hidden noundef i64 @_ZN6OSInfo12vm_page_sizeEv() #1 comdat align 2 {
  %1 = load i64, ptr @_ZN6OSInfo13_vm_page_sizeE, align 8
  ret i64 %1
}

; Function Attrs: mustprogress nounwind uwtable
define linkonce_odr hidden noundef i64 @_Z21round_down_power_of_2ImTnNSt9enable_ifIXcvbsr3std11is_integralIT_EE5valueEiE4typeELi0EES1_S1_(i64 noundef %0) #1 comdat {
  %2 = alloca i64, align 8
  store i64 %0, ptr %2, align 8
  %3 = load i64, ptr %2, align 8
  %4 = call noundef i32 @_Z5log2iImTnNSt9enable_ifIXcvbsr3std11is_integralIT_EE5valueEiE4typeELi0EEiS1_(i64 noundef %3)
  %5 = zext i32 %4 to i64
  %6 = shl i64 1, %5
  ret i64 %6
}

; Function Attrs: mustprogress nounwind uwtable
define internal noundef i64 @_ZL14alignment_maskImTnNSt9enable_ifIXcvbsr3std11is_integralIT_EE5valueEiE4typeELi0EES1_S1_(i64 noundef %0) #1 {
  %2 = alloca i64, align 8
  store i64 %0, ptr %2, align 8
  %3 = load i64, ptr %2, align 8
  %4 = sub i64 %3, 1
  ret i64 %4
}

; Function Attrs: mustprogress nounwind uwtable
define hidden noundef zeroext i1 @_ZNK2os9PageSizes8containsEm(ptr noundef nonnull align 8 dereferenceable(8) %0, i64 noundef %1) #1 align 2 {
  %3 = alloca ptr, align 8
  %4 = alloca i64, align 8
  store ptr %0, ptr %3, align 8
  store i64 %1, ptr %4, align 8
  %5 = load ptr, ptr %3, align 8
  %6 = getelementptr inbounds %"class.os::PageSizes", ptr %5, i32 0, i32 0
  %7 = load i64, ptr %6, align 8
  %8 = load i64, ptr %4, align 8
  %9 = and i64 %7, %8
  %10 = icmp ne i64 %9, 0
  ret i1 %10
}

; Function Attrs: mustprogress nounwind uwtable
define linkonce_odr hidden noundef i64 @_ZN2os12vm_page_sizeEv() #1 comdat align 2 {
  %1 = call noundef i64 @_ZN6OSInfo12vm_page_sizeEv()
  ret i64 %1
}

; Function Attrs: mustprogress nounwind uwtable
define hidden noundef i64 @_ZNK2os9PageSizes12next_smallerEm(ptr noundef nonnull align 8 dereferenceable(8) %0, i64 noundef %1) #1 align 2 {
  %3 = alloca i64, align 8
  %4 = alloca ptr, align 8
  %5 = alloca i64, align 8
  %6 = alloca i64, align 8
  store ptr %0, ptr %4, align 8
  store i64 %1, ptr %5, align 8
  %7 = load ptr, ptr %4, align 8
  %8 = getelementptr inbounds %"class.os::PageSizes", ptr %7, i32 0, i32 0
  %9 = load i64, ptr %8, align 8
  %10 = load i64, ptr %5, align 8
  %11 = sub i64 %10, 1
  %12 = and i64 %9, %11
  store i64 %12, ptr %6, align 8
  %13 = load i64, ptr %6, align 8
  %14 = icmp eq i64 %13, 0
  br i1 %14, label %15, label %16

15:                                               ; preds = %2
  store i64 0, ptr %3, align 8
  br label %19

16:                                               ; preds = %2
  %17 = load i64, ptr %6, align 8
  %18 = call noundef i64 @_Z21round_down_power_of_2ImTnNSt9enable_ifIXcvbsr3std11is_integralIT_EE5valueEiE4typeELi0EES1_S1_(i64 noundef %17)
  store i64 %18, ptr %3, align 8
  br label %19

19:                                               ; preds = %16, %15
  %20 = load i64, ptr %3, align 8
  ret i64 %20
}

; Function Attrs: mustprogress nounwind uwtable
define linkonce_odr hidden noundef zeroext i1 @_Z10is_alignedImmTnNSt9enable_ifIXcvbsr3std11is_integralIT_EE5valueEiE4typeELi0EEbS1_T0_(i64 noundef %0, i64 noundef %1) #1 comdat {
  %3 = alloca i64, align 8
  %4 = alloca i64, align 8
  store i64 %0, ptr %3, align 8
  store i64 %1, ptr %4, align 8
  %5 = load i64, ptr %3, align 8
  %6 = load i64, ptr %4, align 8
  %7 = call noundef i64 @_ZL14alignment_maskImTnNSt9enable_ifIXcvbsr3std11is_integralIT_EE5valueEiE4typeELi0EES1_S1_(i64 noundef %6)
  %8 = and i64 %5, %7
  %9 = icmp eq i64 %8, 0
  ret i1 %9
}

; Function Attrs: mustprogress nounwind uwtable
define hidden noundef i64 @_ZNK2os9PageSizes7largestEv(ptr noundef nonnull align 8 dereferenceable(8) %0) #1 align 2 {
  %2 = alloca i64, align 8
  %3 = alloca ptr, align 8
  %4 = alloca i64, align 8
  store ptr %0, ptr %3, align 8
  %5 = load ptr, ptr %3, align 8
  store i64 -9223372036854775808, ptr %4, align 8
  %6 = call noundef zeroext i1 @_ZNK2os9PageSizes8containsEm(ptr noundef nonnull align 8 dereferenceable(8) %5, i64 noundef -9223372036854775808)
  br i1 %6, label %7, label %8

7:                                                ; preds = %1
  store i64 -9223372036854775808, ptr %2, align 8
  br label %10

8:                                                ; preds = %1
  %9 = call noundef i64 @_ZNK2os9PageSizes12next_smallerEm(ptr noundef nonnull align 8 dereferenceable(8) %5, i64 noundef -9223372036854775808)
  store i64 %9, ptr %2, align 8
  br label %10

10:                                               ; preds = %8, %7
  %11 = load i64, ptr %2, align 8
  ret i64 %11
}

; Function Attrs: mustprogress nounwind uwtable
define linkonce_odr hidden noundef nonnull align 8 dereferenceable(8) ptr @_ZN2os10page_sizesEv() #1 comdat align 2 {
  ret ptr @_ZN2os11_page_sizesE
}

; Function Attrs: mustprogress nounwind uwtable
define hidden noundef i64 @_ZN2os20page_size_for_regionEmmb(i64 noundef %0, i64 noundef %1, i1 noundef zeroext %2) #1 align 2 {
  %4 = alloca i64, align 8
  %5 = alloca i64, align 8
  %6 = alloca i64, align 8
  %7 = alloca i8, align 1
  %8 = alloca i64, align 8
  %9 = alloca i64, align 8
  store i64 %0, ptr %5, align 8
  store i64 %1, ptr %6, align 8
  %10 = zext i1 %2 to i8
  store i8 %10, ptr %7, align 1
  %11 = load i8, ptr @UseLargePages, align 1
  %12 = trunc i8 %11 to i1
  br i1 %12, label %13, label %42

13:                                               ; preds = %3
  %14 = load i64, ptr %5, align 8
  %15 = load i64, ptr %6, align 8
  %16 = udiv i64 %14, %15
  store i64 %16, ptr %8, align 8
  %17 = call noundef nonnull align 8 dereferenceable(8) ptr @_ZN2os10page_sizesEv()
  %18 = call noundef i64 @_ZNK2os9PageSizes7largestEv(ptr noundef nonnull align 8 dereferenceable(8) %17)
  store i64 %18, ptr %9, align 8
  br label %19

19:                                               ; preds = %37, %13
  %20 = load i64, ptr %9, align 8
  %21 = icmp ne i64 %20, 0
  br i1 %21, label %22, label %41

22:                                               ; preds = %19
  %23 = load i64, ptr %9, align 8
  %24 = load i64, ptr %8, align 8
  %25 = icmp ule i64 %23, %24
  br i1 %25, label %26, label %36

26:                                               ; preds = %22
  %27 = load i8, ptr %7, align 1
  %28 = trunc i8 %27 to i1
  br i1 %28, label %29, label %33

29:                                               ; preds = %26
  %30 = load i64, ptr %5, align 8
  %31 = load i64, ptr %9, align 8
  %32 = call noundef zeroext i1 @_Z10is_alignedImmTnNSt9enable_ifIXcvbsr3std11is_integralIT_EE5valueEiE4typeELi0EEbS1_T0_(i64 noundef %30, i64 noundef %31)
  br i1 %32, label %33, label %35

33:                                               ; preds = %29, %26
  %34 = load i64, ptr %9, align 8
  store i64 %34, ptr %4, align 8
  br label %44

35:                                               ; preds = %29
  br label %36

36:                                               ; preds = %35, %22
  br label %37

37:                                               ; preds = %36
  %38 = call noundef nonnull align 8 dereferenceable(8) ptr @_ZN2os10page_sizesEv()
  %39 = load i64, ptr %9, align 8
  %40 = call noundef i64 @_ZNK2os9PageSizes12next_smallerEm(ptr noundef nonnull align 8 dereferenceable(8) %38, i64 noundef %39)
  store i64 %40, ptr %9, align 8
  br label %19, !llvm.loop !24

41:                                               ; preds = %19
  br label %42

42:                                               ; preds = %41, %3
  %43 = call noundef i64 @_ZN2os12vm_page_sizeEv()
  store i64 %43, ptr %4, align 8
  br label %44

44:                                               ; preds = %42, %33
  %45 = load i64, ptr %4, align 8
  ret i64 %45
}