; Function Attrs: mustprogress nofree norecurse nosync nounwind willreturn memory(read, argmem: none, inaccessiblemem: none) uwtable
define hidden noundef i64 @_ZN2os20page_size_for_regionEmmb(i64 noundef %0, i64 noundef %1, i1 noundef zeroext %2) local_unnamed_addr #18 align 2 {
  %4 = load i8, ptr @UseLargePages, align 1
  %5 = trunc i8 %4 to i1
  br i1 %5, label %6, label %.loopexit

6:                                                ; preds = %3
  %7 = udiv i64 %0, %1
  %8 = load i64, ptr @_ZN2os11_page_sizesE, align 8
  %.not.i = icmp sgt i64 %8, -1
  br i1 %.not.i, label %9, label %.lr.ph

9:                                                ; preds = %6
  %10 = icmp eq i64 %8, 0
  %11 = tail call range(i64 0, 65) i64 @llvm.ctlz.i64(i64 %8, i1 true)
  %12 = xor i64 %11, 63
  %13 = shl nuw nsw i64 1, %12
  br i1 %10, label %.loopexit, label %.lr.ph

.lr.ph:                                           ; preds = %9, %6
  %.0.i.ph = phi i64 [ -9223372036854775808, %6 ], [ %13, %9 ]
  br i1 %2, label %.lr.ph.split.us, label %.lr.ph.split

.lr.ph.split.us:                                  ; preds = %.lr.ph, %select.unfold.us
  %.017.us = phi i64 [ %20, %select.unfold.us ], [ %.0.i.ph, %.lr.ph ]
  %.not12.us = icmp ule i64 %.017.us, %7
  %.pre = add i64 %.017.us, -1
  %14 = and i64 %.pre, %0
  %15 = icmp eq i64 %14, 0
  %or.cond = and i1 %.not12.us, %15
  br i1 %or.cond, label %.loopexit14, label %select.unfold.us

select.unfold.us:                                 ; preds = %.lr.ph.split.us
  %16 = and i64 %.pre, %8
  %17 = icmp eq i64 %16, 0
  %18 = tail call range(i64 0, 65) i64 @llvm.ctlz.i64(i64 %16, i1 true)
  %19 = xor i64 %18, 63
  %20 = shl nuw i64 1, %19
  br i1 %17, label %.loopexit, label %.lr.ph.split.us

.lr.ph.split:                                     ; preds = %.lr.ph, %select.unfold
  %.017 = phi i64 [ %26, %select.unfold ], [ %.0.i.ph, %.lr.ph ]
  %.not12 = icmp ugt i64 %.017, %7
  br i1 %.not12, label %select.unfold, label %.loopexit14

select.unfold:                                    ; preds = %.lr.ph.split
  %21 = add i64 %.017, -1
  %22 = and i64 %21, %8
  %23 = icmp eq i64 %22, 0
  %24 = tail call range(i64 0, 65) i64 @llvm.ctlz.i64(i64 %22, i1 true)
  %25 = xor i64 %24, 63
  %26 = shl nuw i64 1, %25
  br i1 %23, label %.loopexit, label %.lr.ph.split

.loopexit:                                        ; preds = %select.unfold, %select.unfold.us, %9, %3
  %27 = load i64, ptr @_ZN6OSInfo13_vm_page_sizeE, align 8
  br label %.loopexit14

.loopexit14:                                      ; preds = %.lr.ph.split, %.lr.ph.split.us, %.loopexit
  %.011 = phi i64 [ %27, %.loopexit ], [ %.017.us, %.lr.ph.split.us ], [ %.017, %.lr.ph.split ]
  ret i64 %.011
}